; Function Attrs: nounwind uwtable
define void @clearGrid(ptr noundef captures(none) initializes((16, 24), (40, 48)) %0) local_unnamed_addr #0 {
  %2 = load ptr, ptr %0, align 8, !tbaa !7
  %3 = load ptr, ptr %2, align 8, !tbaa !22
  %4 = tail call ptr %3(ptr noundef nonnull %2, ptr noundef null, i32 noundef 64) #13
  %5 = getelementptr inbounds nuw i8, ptr %0, i64 32
  %6 = load ptr, ptr %5, align 8, !tbaa !21
  %7 = getelementptr inbounds nuw i8, ptr %0, i64 40
  store ptr %6, ptr %7, align 8, !tbaa !27
  %8 = getelementptr inbounds nuw i8, ptr %0, i64 8
  %9 = load ptr, ptr %8, align 8, !tbaa !13
  %10 = getelementptr inbounds nuw i8, ptr %0, i64 16
  store ptr %9, ptr %10, align 8, !tbaa !28
  %11 = load ptr, ptr %9, align 8, !tbaa !16
  %12 = getelementptr inbounds nuw i8, ptr %9, i64 8
  store ptr %11, ptr %12, align 8, !tbaa !19
  ret void
}